; Function Attrs: mustprogress uwtable
define void @_Z12cpp_cur_fileB5cxx11PKP7gmx_cpp(ptr dead_on_unwind noalias nonnull writable sret(%"class.std::filesystem::__cxx11::path") align 8 %0, ptr nocapture noundef readonly %1) local_unnamed_addr #0 personality ptr @__gxx_personality_v0 {
  %3 = load ptr, ptr %1, align 8
  %4 = getelementptr inbounds i8, ptr %3, i64 176
  tail call void @_ZNSt7__cxx1112basic_stringIcSt11char_traitsIcESaIcEEC1ERKS4_(ptr noundef nonnull align 8 dereferenceable(32) %0, ptr noundef nonnull align 8 dereferenceable(32) %4)
  %5 = getelementptr inbounds i8, ptr %0, i64 32
  %6 = getelementptr inbounds i8, ptr %3, i64 208
  invoke void @_ZNSt10filesystem7__cxx114path5_ListC1ERKS2_(ptr noundef nonnull align 8 dereferenceable(8) %5, ptr noundef nonnull align 8 dereferenceable(8) %6)
          to label %_ZNSt10filesystem7__cxx114pathC2ERKS1_.exit unwind label %7

7:                                                ; preds = %2
  %8 = landingpad { ptr, i32 }
          cleanup
  tail call void @_ZNSt7__cxx1112basic_stringIcSt11char_traitsIcESaIcEED1Ev(ptr noundef nonnull align 8 dereferenceable(32) %0) #20
  resume { ptr, i32 } %8

_ZNSt10filesystem7__cxx114pathC2ERKS1_.exit:      ; preds = %2
  ret void
}